target datalayout = "e-m:e-p270:32:32-p271:32:32-p272:64:64-i64:64-i128:128-f80:128-n8:16:32:64-S128"
target triple = "x86_64-pc-linux-gnu"

%struct.AVChannelLayout = type { i32, i32, %union.anon, ptr }
%union.anon = type { i64 }
%struct.AVFormatContext = type { ptr, ptr, ptr, ptr, ptr, i32, i32, ptr, i32, ptr, i32, ptr, ptr, i64, i64, i64, i32, i32, i32, i64, i64, ptr, i32, i32, ptr, i32, i32, i32, i32, ptr, i64, i32, i32, %struct.AVIOInterruptCB, i32, i32, i32, i32, i64, i32, i32, i32, i32, i32, i32, i32, i32, i32, i32, i32, i32, i64, i32, i32, i32, i32, i32, ptr, ptr, ptr, ptr, i32, ptr, ptr, ptr, ptr, i32, ptr, ptr, i64, ptr, ptr, ptr, i64 }
%struct.AVIOInterruptCB = type { ptr, ptr }
%struct.SeqDemuxContext = type { i32, i32, i32, i32, [30 x %struct.TiertexSeqFrameBuffer], i32, i32, i32, i32, i32, i32, ptr, i32 }
%struct.TiertexSeqFrameBuffer = type { i32, i32, ptr }
%struct.AVStream = type { ptr, i32, i32, ptr, ptr, %struct.AVRational, i64, i64, i64, i32, i32, %struct.AVRational, ptr, %struct.AVRational, %struct.AVPacket, i32, %struct.AVRational, i32 }
%struct.AVPacket = type { ptr, i64, i64, ptr, i32, i32, i32, ptr, i32, i64, i64, ptr, ptr, %struct.AVRational }
%struct.AVRational = type { i32, i32 }
%struct.AVCodecParameters = type { i32, i32, i32, ptr, i32, ptr, i32, i32, i64, i32, i32, i32, i32, i32, i32, %struct.AVRational, %struct.AVRational, i32, i32, i32, i32, i32, i32, i32, %struct.AVChannelLayout, i32, i32, i32, i32, i32, i32 }

; Function Attrs: nounwind uwtable
define internal i32 @seq_init_frame_buffers(ptr noundef %0, ptr noundef %1) #0 {
  %3 = alloca i32, align 4
  %4 = alloca ptr, align 8
  %5 = alloca ptr, align 8
  %6 = alloca i32, align 4
  %7 = alloca i32, align 4
  %8 = alloca ptr, align 8
  %9 = alloca i32, align 4
  store ptr %0, ptr %4, align 8, !tbaa !35
  store ptr %1, ptr %5, align 8, !tbaa !38
  call void @llvm.lifetime.start.p0(i64 4, ptr %6) #4
  call void @llvm.lifetime.start.p0(i64 4, ptr %7) #4
  call void @llvm.lifetime.start.p0(i64 8, ptr %8) #4
  %10 = load ptr, ptr %5, align 8, !tbaa !38
  %11 = call i64 @avio_seek(ptr noundef %10, i64 noundef 256, i32 noundef 0)
  store i32 0, ptr %6, align 4, !tbaa !13
  br label %12

12:                                               ; preds = %44, %2
  %13 = load i32, ptr %6, align 4, !tbaa !13
  %14 = icmp slt i32 %13, 30
  br i1 %14, label %15, label %47

15:                                               ; preds = %12
  %16 = load ptr, ptr %5, align 8, !tbaa !38
  %17 = call i32 @avio_rl16(ptr noundef %16)
  store i32 %17, ptr %7, align 4, !tbaa !13
  %18 = load i32, ptr %7, align 4, !tbaa !13
  %19 = icmp eq i32 %18, 0
  br i1 %19, label %20, label %21

20:                                               ; preds = %15
  br label %47

21:                                               ; preds = %15
  %22 = load ptr, ptr %4, align 8, !tbaa !35
  %23 = getelementptr inbounds nuw %struct.SeqDemuxContext, ptr %22, i32 0, i32 4
  %24 = load i32, ptr %6, align 4, !tbaa !13
  %25 = sext i32 %24 to i64
  %26 = getelementptr inbounds [30 x %struct.TiertexSeqFrameBuffer], ptr %23, i64 0, i64 %25
  store ptr %26, ptr %8, align 8, !tbaa !86
  %27 = load ptr, ptr %8, align 8, !tbaa !86
  %28 = getelementptr inbounds nuw %struct.TiertexSeqFrameBuffer, ptr %27, i32 0, i32 0
  store i32 0, ptr %28, align 8, !tbaa !88
  %29 = load i32, ptr %7, align 4, !tbaa !13
  %30 = load ptr, ptr %8, align 8, !tbaa !86
  %31 = getelementptr inbounds nuw %struct.TiertexSeqFrameBuffer, ptr %30, i32 0, i32 1
  store i32 %29, ptr %31, align 4, !tbaa !90
  %32 = load i32, ptr %7, align 4, !tbaa !13
  %33 = sext i32 %32 to i64
  %34 = call noalias ptr @av_malloc(i64 noundef %33)
  %35 = load ptr, ptr %8, align 8, !tbaa !86
  %36 = getelementptr inbounds nuw %struct.TiertexSeqFrameBuffer, ptr %35, i32 0, i32 2
  store ptr %34, ptr %36, align 8, !tbaa !91
  %37 = load ptr, ptr %8, align 8, !tbaa !86
  %38 = getelementptr inbounds nuw %struct.TiertexSeqFrameBuffer, ptr %37, i32 0, i32 2
  %39 = load ptr, ptr %38, align 8, !tbaa !91
  %40 = icmp ne ptr %39, null
  br i1 %40, label %42, label %41

41:                                               ; preds = %21
  store i32 -12, ptr %3, align 4
  store i32 1, ptr %9, align 4
  br label %51

42:                                               ; preds = %21
  br label %43

43:                                               ; preds = %42
  br label %44

44:                                               ; preds = %43
  %45 = load i32, ptr %6, align 4, !tbaa !13
  %46 = add nsw i32 %45, 1
  store i32 %46, ptr %6, align 4, !tbaa !13
  br label %12, !llvm.loop !92

47:                                               ; preds = %20, %12
  %48 = load i32, ptr %6, align 4, !tbaa !13
  %49 = load ptr, ptr %4, align 8, !tbaa !35
  %50 = getelementptr inbounds nuw %struct.SeqDemuxContext, ptr %49, i32 0, i32 5
  store i32 %48, ptr %50, align 8, !tbaa !93
  store i32 0, ptr %3, align 4
  store i32 1, ptr %9, align 4
  br label %51

51:                                               ; preds = %47, %41
  call void @llvm.lifetime.end.p0(i64 8, ptr %8) #4
  call void @llvm.lifetime.end.p0(i64 4, ptr %7) #4
  call void @llvm.lifetime.end.p0(i64 4, ptr %6) #4
  %52 = load i32, ptr %3, align 4
  ret i32 %52
}

; Function Attrs: nounwind uwtable
define internal i32 @seq_read_header(ptr noundef %0) #0 {
  %2 = alloca i32, align 4
  %3 = alloca ptr, align 8
  %4 = alloca i32, align 4
  %5 = alloca i32, align 4
  %6 = alloca ptr, align 8
  %7 = alloca ptr, align 8
  %8 = alloca ptr, align 8
  %9 = alloca i32, align 4
  %10 = alloca %struct.AVChannelLayout, align 8
  store ptr %0, ptr %3, align 8, !tbaa !18
  call void @llvm.lifetime.start.p0(i64 4, ptr %4) #4
  call void @llvm.lifetime.start.p0(i64 4, ptr %5) #4
  call void @llvm.lifetime.start.p0(i64 8, ptr %6) #4
  %11 = load ptr, ptr %3, align 8, !tbaa !18
  %12 = getelementptr inbounds nuw %struct.AVFormatContext, ptr %11, i32 0, i32 3
  %13 = load ptr, ptr %12, align 8, !tbaa !20
  store ptr %13, ptr %6, align 8, !tbaa !35
  call void @llvm.lifetime.start.p0(i64 8, ptr %7) #4
  %14 = load ptr, ptr %3, align 8, !tbaa !18
  %15 = getelementptr inbounds nuw %struct.AVFormatContext, ptr %14, i32 0, i32 4
  %16 = load ptr, ptr %15, align 8, !tbaa !37
  store ptr %16, ptr %7, align 8, !tbaa !38
  call void @llvm.lifetime.start.p0(i64 8, ptr %8) #4
  %17 = load ptr, ptr %6, align 8, !tbaa !35
  %18 = load ptr, ptr %7, align 8, !tbaa !38
  %19 = call i32 @seq_init_frame_buffers(ptr noundef %17, ptr noundef %18)
  store i32 %19, ptr %5, align 4, !tbaa !13
  %20 = load i32, ptr %5, align 4, !tbaa !13
  %21 = icmp slt i32 %20, 0
  br i1 %21, label %22, label %24

22:                                               ; preds = %1
  %23 = load i32, ptr %5, align 4, !tbaa !13
  store i32 %23, ptr %2, align 4
  store i32 1, ptr %9, align 4
  br label %161

24:                                               ; preds = %1
  %25 = load ptr, ptr %6, align 8, !tbaa !35
  %26 = getelementptr inbounds nuw %struct.SeqDemuxContext, ptr %25, i32 0, i32 3
  store i32 0, ptr %26, align 4, !tbaa !39
  store i32 1, ptr %4, align 4, !tbaa !13
  br label %27

27:                                               ; preds = %39, %24
  %28 = load i32, ptr %4, align 4, !tbaa !13
  %29 = icmp sle i32 %28, 100
  br i1 %29, label %30, label %42

30:                                               ; preds = %27
  %31 = load ptr, ptr %6, align 8, !tbaa !35
  %32 = load ptr, ptr %7, align 8, !tbaa !38
  %33 = call i32 @seq_parse_frame_data(ptr noundef %31, ptr noundef %32)
  store i32 %33, ptr %5, align 4, !tbaa !13
  %34 = load i32, ptr %5, align 4, !tbaa !13
  %35 = icmp slt i32 %34, 0
  br i1 %35, label %36, label %38

36:                                               ; preds = %30
  %37 = load i32, ptr %5, align 4, !tbaa !13
  store i32 %37, ptr %2, align 4
  store i32 1, ptr %9, align 4
  br label %161

38:                                               ; preds = %30
  br label %39

39:                                               ; preds = %38
  %40 = load i32, ptr %4, align 4, !tbaa !13
  %41 = add nsw i32 %40, 1
  store i32 %41, ptr %4, align 4, !tbaa !13
  br label %27, !llvm.loop !41

42:                                               ; preds = %27
  %43 = load ptr, ptr %6, align 8, !tbaa !35
  %44 = getelementptr inbounds nuw %struct.SeqDemuxContext, ptr %43, i32 0, i32 2
  store i32 0, ptr %44, align 8, !tbaa !42
  %45 = load ptr, ptr %6, align 8, !tbaa !35
  %46 = getelementptr inbounds nuw %struct.SeqDemuxContext, ptr %45, i32 0, i32 12
  store i32 0, ptr %46, align 8, !tbaa !43
  %47 = load ptr, ptr %3, align 8, !tbaa !18
  %48 = call ptr @avformat_new_stream(ptr noundef %47, ptr noundef null)
  store ptr %48, ptr %8, align 8, !tbaa !44
  %49 = load ptr, ptr %8, align 8, !tbaa !44
  %50 = icmp ne ptr %49, null
  br i1 %50, label %52, label %51

51:                                               ; preds = %42
  store i32 -12, ptr %2, align 4
  store i32 1, ptr %9, align 4
  br label %161

52:                                               ; preds = %42
  %53 = load ptr, ptr %8, align 8, !tbaa !44
  call void @avpriv_set_pts_info(ptr noundef %53, i32 noundef 32, i32 noundef 1, i32 noundef 25)
  %54 = load ptr, ptr %8, align 8, !tbaa !44
  %55 = getelementptr inbounds nuw %struct.AVStream, ptr %54, i32 0, i32 1
  %56 = load i32, ptr %55, align 8, !tbaa !46
  %57 = load ptr, ptr %6, align 8, !tbaa !35
  %58 = getelementptr inbounds nuw %struct.SeqDemuxContext, ptr %57, i32 0, i32 1
  store i32 %56, ptr %58, align 4, !tbaa !53
  %59 = load ptr, ptr %8, align 8, !tbaa !44
  %60 = getelementptr inbounds nuw %struct.AVStream, ptr %59, i32 0, i32 3
  %61 = load ptr, ptr %60, align 8, !tbaa !54
  %62 = getelementptr inbounds nuw %struct.AVCodecParameters, ptr %61, i32 0, i32 0
  store i32 0, ptr %62, align 8, !tbaa !55
  %63 = load ptr, ptr %8, align 8, !tbaa !44
  %64 = getelementptr inbounds nuw %struct.AVStream, ptr %63, i32 0, i32 3
  %65 = load ptr, ptr %64, align 8, !tbaa !54
  %66 = getelementptr inbounds nuw %struct.AVCodecParameters, ptr %65, i32 0, i32 1
  store i32 95, ptr %66, align 4, !tbaa !58
  %67 = load ptr, ptr %8, align 8, !tbaa !44
  %68 = getelementptr inbounds nuw %struct.AVStream, ptr %67, i32 0, i32 3
  %69 = load ptr, ptr %68, align 8, !tbaa !54
  %70 = getelementptr inbounds nuw %struct.AVCodecParameters, ptr %69, i32 0, i32 2
  store i32 0, ptr %70, align 8, !tbaa !59
  %71 = load ptr, ptr %8, align 8, !tbaa !44
  %72 = getelementptr inbounds nuw %struct.AVStream, ptr %71, i32 0, i32 3
  %73 = load ptr, ptr %72, align 8, !tbaa !54
  %74 = getelementptr inbounds nuw %struct.AVCodecParameters, ptr %73, i32 0, i32 13
  store i32 256, ptr %74, align 8, !tbaa !60
  %75 = load ptr, ptr %8, align 8, !tbaa !44
  %76 = getelementptr inbounds nuw %struct.AVStream, ptr %75, i32 0, i32 3
  %77 = load ptr, ptr %76, align 8, !tbaa !54
  %78 = getelementptr inbounds nuw %struct.AVCodecParameters, ptr %77, i32 0, i32 14
  store i32 128, ptr %78, align 4, !tbaa !61
  %79 = load ptr, ptr %3, align 8, !tbaa !18
  %80 = call ptr @avformat_new_stream(ptr noundef %79, ptr noundef null)
  store ptr %80, ptr %8, align 8, !tbaa !44
  %81 = load ptr, ptr %8, align 8, !tbaa !44
  %82 = icmp ne ptr %81, null
  br i1 %82, label %84, label %83

83:                                               ; preds = %52
  store i32 -12, ptr %2, align 4
  store i32 1, ptr %9, align 4
  br label %161

84:                                               ; preds = %52
  %85 = load ptr, ptr %8, align 8, !tbaa !44
  %86 = getelementptr inbounds nuw %struct.AVStream, ptr %85, i32 0, i32 6
  store i64 0, ptr %86, align 8, !tbaa !62
  %87 = load ptr, ptr %8, align 8, !tbaa !44
  call void @avpriv_set_pts_info(ptr noundef %87, i32 noundef 32, i32 noundef 1, i32 noundef 22050)
  %88 = load ptr, ptr %8, align 8, !tbaa !44
  %89 = getelementptr inbounds nuw %struct.AVStream, ptr %88, i32 0, i32 1
  %90 = load i32, ptr %89, align 8, !tbaa !46
  %91 = load ptr, ptr %6, align 8, !tbaa !35
  %92 = getelementptr inbounds nuw %struct.SeqDemuxContext, ptr %91, i32 0, i32 0
  store i32 %90, ptr %92, align 8, !tbaa !63
  %93 = load ptr, ptr %8, align 8, !tbaa !44
  %94 = getelementptr inbounds nuw %struct.AVStream, ptr %93, i32 0, i32 3
  %95 = load ptr, ptr %94, align 8, !tbaa !54
  %96 = getelementptr inbounds nuw %struct.AVCodecParameters, ptr %95, i32 0, i32 0
  store i32 1, ptr %96, align 8, !tbaa !55
  %97 = load ptr, ptr %8, align 8, !tbaa !44
  %98 = getelementptr inbounds nuw %struct.AVStream, ptr %97, i32 0, i32 3
  %99 = load ptr, ptr %98, align 8, !tbaa !54
  %100 = getelementptr inbounds nuw %struct.AVCodecParameters, ptr %99, i32 0, i32 1
  store i32 65537, ptr %100, align 4, !tbaa !58
  %101 = load ptr, ptr %8, align 8, !tbaa !44
  %102 = getelementptr inbounds nuw %struct.AVStream, ptr %101, i32 0, i32 3
  %103 = load ptr, ptr %102, align 8, !tbaa !54
  %104 = getelementptr inbounds nuw %struct.AVCodecParameters, ptr %103, i32 0, i32 2
  store i32 0, ptr %104, align 8, !tbaa !59
  %105 = load ptr, ptr %8, align 8, !tbaa !44
  %106 = getelementptr inbounds nuw %struct.AVStream, ptr %105, i32 0, i32 3
  %107 = load ptr, ptr %106, align 8, !tbaa !54
  %108 = getelementptr inbounds nuw %struct.AVCodecParameters, ptr %107, i32 0, i32 24
  %109 = getelementptr inbounds nuw %struct.AVChannelLayout, ptr %10, i32 0, i32 0
  store i32 1, ptr %109, align 8, !tbaa !64
  %110 = getelementptr inbounds nuw %struct.AVChannelLayout, ptr %10, i32 0, i32 1
  store i32 1, ptr %110, align 4, !tbaa !65
  %111 = getelementptr inbounds nuw %struct.AVChannelLayout, ptr %10, i32 0, i32 2
  store i64 4, ptr %111, align 8, !tbaa !15
  %112 = getelementptr inbounds nuw %struct.AVChannelLayout, ptr %10, i32 0, i32 3
  store ptr null, ptr %112, align 8, !tbaa !66
  call void @llvm.memcpy.p0.p0.i64(ptr align 8 %108, ptr align 8 %10, i64 24, i1 false), !tbaa.struct !67
  %113 = load ptr, ptr %8, align 8, !tbaa !44
  %114 = getelementptr inbounds nuw %struct.AVStream, ptr %113, i32 0, i32 3
  %115 = load ptr, ptr %114, align 8, !tbaa !54
  %116 = getelementptr inbounds nuw %struct.AVCodecParameters, ptr %115, i32 0, i32 25
  store i32 22050, ptr %116, align 8, !tbaa !69
  %117 = load ptr, ptr %8, align 8, !tbaa !44
  %118 = getelementptr inbounds nuw %struct.AVStream, ptr %117, i32 0, i32 3
  %119 = load ptr, ptr %118, align 8, !tbaa !54
  %120 = getelementptr inbounds nuw %struct.AVCodecParameters, ptr %119, i32 0, i32 9
  store i32 16, ptr %120, align 8, !tbaa !70
  %121 = load ptr, ptr %8, align 8, !tbaa !44
  %122 = getelementptr inbounds nuw %struct.AVStream, ptr %121, i32 0, i32 3
  %123 = load ptr, ptr %122, align 8, !tbaa !54
  %124 = getelementptr inbounds nuw %struct.AVCodecParameters, ptr %123, i32 0, i32 25
  %125 = load i32, ptr %124, align 8, !tbaa !69
  %126 = load ptr, ptr %8, align 8, !tbaa !44
  %127 = getelementptr inbounds nuw %struct.AVStream, ptr %126, i32 0, i32 3
  %128 = load ptr, ptr %127, align 8, !tbaa !54
  %129 = getelementptr inbounds nuw %struct.AVCodecParameters, ptr %128, i32 0, i32 9
  %130 = load i32, ptr %129, align 8, !tbaa !70
  %131 = mul nsw i32 %125, %130
  %132 = load ptr, ptr %8, align 8, !tbaa !44
  %133 = getelementptr inbounds nuw %struct.AVStream, ptr %132, i32 0, i32 3
  %134 = load ptr, ptr %133, align 8, !tbaa !54
  %135 = getelementptr inbounds nuw %struct.AVCodecParameters, ptr %134, i32 0, i32 24
  %136 = getelementptr inbounds nuw %struct.AVChannelLayout, ptr %135, i32 0, i32 1
  %137 = load i32, ptr %136, align 4, !tbaa !71
  %138 = mul nsw i32 %131, %137
  %139 = sext i32 %138 to i64
  %140 = load ptr, ptr %8, align 8, !tbaa !44
  %141 = getelementptr inbounds nuw %struct.AVStream, ptr %140, i32 0, i32 3
  %142 = load ptr, ptr %141, align 8, !tbaa !54
  %143 = getelementptr inbounds nuw %struct.AVCodecParameters, ptr %142, i32 0, i32 8
  store i64 %139, ptr %143, align 8, !tbaa !72
  %144 = load ptr, ptr %8, align 8, !tbaa !44
  %145 = getelementptr inbounds nuw %struct.AVStream, ptr %144, i32 0, i32 3
  %146 = load ptr, ptr %145, align 8, !tbaa !54
  %147 = getelementptr inbounds nuw %struct.AVCodecParameters, ptr %146, i32 0, i32 24
  %148 = getelementptr inbounds nuw %struct.AVChannelLayout, ptr %147, i32 0, i32 1
  %149 = load i32, ptr %148, align 4, !tbaa !71
  %150 = load ptr, ptr %8, align 8, !tbaa !44
  %151 = getelementptr inbounds nuw %struct.AVStream, ptr %150, i32 0, i32 3
  %152 = load ptr, ptr %151, align 8, !tbaa !54
  %153 = getelementptr inbounds nuw %struct.AVCodecParameters, ptr %152, i32 0, i32 9
  %154 = load i32, ptr %153, align 8, !tbaa !70
  %155 = mul nsw i32 %149, %154
  %156 = sdiv i32 %155, 8
  %157 = load ptr, ptr %8, align 8, !tbaa !44
  %158 = getelementptr inbounds nuw %struct.AVStream, ptr %157, i32 0, i32 3
  %159 = load ptr, ptr %158, align 8, !tbaa !54
  %160 = getelementptr inbounds nuw %struct.AVCodecParameters, ptr %159, i32 0, i32 26
  store i32 %156, ptr %160, align 4, !tbaa !73
  store i32 0, ptr %2, align 4
  store i32 1, ptr %9, align 4
  br label %161

161:                                              ; preds = %84, %83, %51, %36, %22
  call void @llvm.lifetime.end.p0(i64 8, ptr %8) #4
  call void @llvm.lifetime.end.p0(i64 8, ptr %7) #4
  call void @llvm.lifetime.end.p0(i64 8, ptr %6) #4
  call void @llvm.lifetime.end.p0(i64 4, ptr %5) #4
  call void @llvm.lifetime.end.p0(i64 4, ptr %4) #4
  %162 = load i32, ptr %2, align 4
  ret i32 %162
}