; Function Attrs: nounwind uwtable
define internal range(i32 -1094995529, 1) i32 @seq_read_header(ptr noundef %0) #1 {
  %2 = getelementptr inbounds nuw i8, ptr %0, i64 24
  %3 = load ptr, ptr %2, align 8, !tbaa !15
  %4 = getelementptr inbounds nuw i8, ptr %0, i64 32
  %5 = load ptr, ptr %4, align 8, !tbaa !30
  %6 = tail call i64 @avio_seek(ptr noundef %5, i64 noundef 256, i32 noundef 0) #5
  %7 = getelementptr inbounds nuw i8, ptr %3, i64 16
  br label %8

8:                                                ; preds = %17, %1
  %indvars.iv.i = phi i64 [ 0, %1 ], [ %indvars.iv.next.i, %17 ]
  %9 = tail call i32 @avio_rl16(ptr noundef %5) #5
  %10 = icmp eq i32 %9, 0
  br i1 %10, label %.split.loop.exit.i, label %11

11:                                               ; preds = %8
  %12 = getelementptr inbounds nuw [30 x %struct.TiertexSeqFrameBuffer], ptr %7, i64 0, i64 %indvars.iv.i
  store i32 0, ptr %12, align 8, !tbaa !31
  %13 = getelementptr inbounds nuw i8, ptr %12, i64 4
  store i32 %9, ptr %13, align 4, !tbaa !33
  %14 = sext i32 %9 to i64
  %15 = tail call noalias ptr @av_malloc(i64 noundef %14) #5
  %16 = getelementptr inbounds nuw i8, ptr %12, i64 8
  store ptr %15, ptr %16, align 8, !tbaa !34
  %.not.i = icmp eq ptr %15, null
  br i1 %.not.i, label %seq_init_frame_buffers.exit.thread, label %17

17:                                               ; preds = %11
  %indvars.iv.next.i = add nuw nsw i64 %indvars.iv.i, 1
  %exitcond.not.i = icmp eq i64 %indvars.iv.next.i, 30
  br i1 %exitcond.not.i, label %.loopexit, label %8, !llvm.loop !35

.split.loop.exit.i:                               ; preds = %8
  %18 = trunc nuw nsw i64 %indvars.iv.i to i32
  br label %.loopexit

.loopexit:                                        ; preds = %17, %.split.loop.exit.i
  %.015.lcssa.i = phi i32 [ %18, %.split.loop.exit.i ], [ 30, %17 ]
  %19 = getelementptr inbounds nuw i8, ptr %3, i64 496
  store i32 %.015.lcssa.i, ptr %19, align 8, !tbaa !36
  %20 = getelementptr inbounds nuw i8, ptr %3, i64 12
  store i32 0, ptr %20, align 4, !tbaa !38
  br label %23

21:                                               ; preds = %23
  %22 = add nuw nsw i32 %.04454, 1
  %exitcond.not = icmp eq i32 %22, 101
  br i1 %exitcond.not, label %26, label %23, !llvm.loop !39

23:                                               ; preds = %.loopexit, %21
  %.04454 = phi i32 [ 1, %.loopexit ], [ %22, %21 ]
  %24 = tail call fastcc i32 @seq_parse_frame_data(ptr noundef %3, ptr noundef %5)
  %25 = icmp slt i32 %24, 0
  br i1 %25, label %seq_init_frame_buffers.exit.thread, label %21

26:                                               ; preds = %21
  %27 = getelementptr inbounds nuw i8, ptr %3, i64 8
  store i32 0, ptr %27, align 8, !tbaa !40
  %28 = getelementptr inbounds nuw i8, ptr %3, i64 528
  store i32 0, ptr %28, align 8, !tbaa !41
  %29 = tail call ptr @avformat_new_stream(ptr noundef %0, ptr noundef null) #5
  %.not = icmp eq ptr %29, null
  br i1 %.not, label %seq_init_frame_buffers.exit.thread, label %30

30:                                               ; preds = %26
  tail call void @avpriv_set_pts_info(ptr noundef nonnull %29, i32 noundef 32, i32 noundef 1, i32 noundef 25) #5
  %31 = getelementptr inbounds nuw i8, ptr %29, i64 8
  %32 = load i32, ptr %31, align 8, !tbaa !42
  %33 = getelementptr inbounds nuw i8, ptr %3, i64 4
  store i32 %32, ptr %33, align 4, !tbaa !49
  %34 = getelementptr inbounds nuw i8, ptr %29, i64 16
  %35 = load ptr, ptr %34, align 8, !tbaa !50
  store i32 0, ptr %35, align 8, !tbaa !51
  %36 = getelementptr inbounds nuw i8, ptr %35, i64 4
  store i32 95, ptr %36, align 4, !tbaa !54
  %37 = getelementptr inbounds nuw i8, ptr %35, i64 8
  store i32 0, ptr %37, align 8, !tbaa !55
  %38 = getelementptr inbounds nuw i8, ptr %35, i64 72
  store i32 256, ptr %38, align 8, !tbaa !56
  %39 = getelementptr inbounds nuw i8, ptr %35, i64 76
  store i32 128, ptr %39, align 4, !tbaa !57
  %40 = tail call ptr @avformat_new_stream(ptr noundef %0, ptr noundef null) #5
  %.not49 = icmp eq ptr %40, null
  br i1 %.not49, label %seq_init_frame_buffers.exit.thread, label %41

41:                                               ; preds = %30
  %42 = getelementptr inbounds nuw i8, ptr %40, i64 40
  store i64 0, ptr %42, align 8, !tbaa !58
  tail call void @avpriv_set_pts_info(ptr noundef nonnull %40, i32 noundef 32, i32 noundef 1, i32 noundef 22050) #5
  %43 = getelementptr inbounds nuw i8, ptr %40, i64 8
  %44 = load i32, ptr %43, align 8, !tbaa !42
  store i32 %44, ptr %3, align 8, !tbaa !59
  %45 = getelementptr inbounds nuw i8, ptr %40, i64 16
  %46 = load ptr, ptr %45, align 8, !tbaa !50
  store i32 1, ptr %46, align 8, !tbaa !51
  %47 = getelementptr inbounds nuw i8, ptr %46, i64 4
  store i32 65537, ptr %47, align 4, !tbaa !54
  %48 = getelementptr inbounds nuw i8, ptr %46, i64 8
  store i32 0, ptr %48, align 8, !tbaa !55
  %49 = getelementptr inbounds nuw i8, ptr %46, i64 128
  store i32 1, ptr %49, align 8, !tbaa !60
  %.sroa.2.0..sroa_idx = getelementptr inbounds nuw i8, ptr %46, i64 132
  store i32 1, ptr %.sroa.2.0..sroa_idx, align 4, !tbaa !60
  %.sroa.3.0..sroa_idx = getelementptr inbounds nuw i8, ptr %46, i64 136
  store i64 4, ptr %.sroa.3.0..sroa_idx, align 8, !tbaa !14
  %.sroa.4.0..sroa_idx = getelementptr inbounds nuw i8, ptr %46, i64 144
  store ptr null, ptr %.sroa.4.0..sroa_idx, align 8, !tbaa !61
  %50 = load ptr, ptr %45, align 8, !tbaa !50
  %51 = getelementptr inbounds nuw i8, ptr %50, i64 152
  store i32 22050, ptr %51, align 8, !tbaa !62
  %52 = getelementptr inbounds nuw i8, ptr %50, i64 56
  store i32 16, ptr %52, align 8, !tbaa !63
  %53 = getelementptr inbounds nuw i8, ptr %50, i64 132
  %54 = load i32, ptr %53, align 4, !tbaa !64
  %55 = mul nsw i32 %54, 352800
  %56 = sext i32 %55 to i64
  %57 = getelementptr inbounds nuw i8, ptr %50, i64 48
  store i64 %56, ptr %57, align 8, !tbaa !65
  %58 = shl nsw i32 %54, 1
  %59 = getelementptr inbounds nuw i8, ptr %50, i64 156
  store i32 %58, ptr %59, align 4, !tbaa !66
  br label %seq_init_frame_buffers.exit.thread

seq_init_frame_buffers.exit.thread:               ; preds = %11, %23, %30, %26, %41
  %.0 = phi i32 [ 0, %41 ], [ -12, %26 ], [ -12, %30 ], [ %24, %23 ], [ -12, %11 ]
  ret i32 %.0
}